; Function Attrs: nounwind sspstrong uwtable
define internal noundef i64 @cState_buffer_initial_length_set(i64 noundef %0, i64 noundef %1) #0 {
  %3 = tail call ptr @rb_check_typeddata(i64 noundef %0, ptr noundef nonnull @JSON_Generator_State_type) #22
  %4 = and i64 %1, 1
  %.not15.i.i = icmp eq i64 %4, 0
  br i1 %.not15.i.i, label %rbimpl_RB_TYPE_P_fastpath.exit.thread.i.i, label %Check_Type.exit.i, !prof !40

rbimpl_RB_TYPE_P_fastpath.exit.thread.i.i:        ; preds = %2
  tail call void @rb_unexpected_type(i64 noundef %1, i32 noundef 21) #25
  unreachable

Check_Type.exit.i:                                ; preds = %2
  %5 = ashr i64 %1, 1
  %6 = icmp sgt i64 %5, 0
  br i1 %6, label %7, label %buffer_initial_length_set.exit

7:                                                ; preds = %Check_Type.exit.i
  %8 = getelementptr inbounds nuw i8, ptr %3, i64 64
  store i64 %5, ptr %8, align 8, !tbaa !21
  br label %buffer_initial_length_set.exit

buffer_initial_length_set.exit:                   ; preds = %Check_Type.exit.i, %7
  ret i64 4
}